; Function Attrs: mustprogress uwtable
define noundef i64 @_ZNK5faiss18IndexRowwiseMinMax12sa_code_sizeEv(ptr noundef nonnull readonly align 8 captures(none) dereferenceable(49) %0) unnamed_addr #4 align 2 {
  %2 = getelementptr inbounds nuw i8, ptr %0, i64 40
  %3 = load ptr, ptr %2, align 8, !tbaa !28
  %4 = load ptr, ptr %3, align 8, !tbaa !16
  %5 = getelementptr inbounds nuw i8, ptr %4, i64 136
  %6 = load ptr, ptr %5, align 8
  %7 = tail call noundef i64 %6(ptr noundef nonnull align 8 dereferenceable(36) %3)
  %8 = add i64 %7, 8
  ret i64 %8
}